
 pwFin

 Start         Length     Name                   Class
 0001:00000000 00000887CH CODE32                 CODE 32-bit
 0001:0000887C 000000030H _MSGSEG32              CODE 32-bit
 0002:00000000 0000024FCH DATA32                 DATA 32-bit
 0002:000024FC 000000234H CONST32                CONST 32-bit
 0002:00002730 00000000CH EDC1                   EDC_CLASS 32-bit
 0002:0000273C 0000002B8H EDC2                   EDC_CLASS 32-bit
 0002:000029F4 000000004H EDC3                   EDC_CLASS 32-bit
 0002:000029F8 000000000H BSS32                  BSS 32-bit
 0002:000029F8 0000000B4H c_common               BSS 32-bit

 Origin   Group
 0002:0   DGROUP
 0000:0   FLAT

 Address       Export                  Alias

 0002:00000138 M_PWFinanceFileCClassData  M_PWFinanceFileCClassData
 0002:00000134 M_PWFinanceFileClassData  M_PWFinanceFileClassData
 0001:00000978 M_PWFinanceFileNewClass  M_PWFinanceFileNewClass
 0002:0000012C PWFinanceFileCClassData  PWFinanceFileCClassData
 0002:0000011C PWFinanceFileClassData  PWFinanceFileClassData
 0001:0000057C PWFinanceFileNewClass   PWFinanceFileNewClass

  Address         Publics by Name

 0002:00002A30       @BSSEDCINIT.C
 0002:000029FC       @BSSN_EXCEPT.C
 0002:00002AA8       @BSSPRTEMSG.C
 0002:00002A40       @BSSPWFIN.C
 0001:00007F18       calloc
 0002:00000000       DefaultClassTitle
 0000:00000000  Imp  DOS32FLATTOSEL       (DOSCALLS.425)
 0001:0000888E       Dos32GetMessage
 0001:0000888E       DOS32GETMESSAGE
 0000:00000000  Imp  DOS32IQUERYMESSAGECP (MSG.8)
 0000:00000000  Imp  DOS32SELTOFLAT       (DOSCALLS.426)
 0000:00000000  Imp  DOS32TRUEGETMESSAGE  (MSG.6)
 0000:00000000  Imp  DosAllocMem          (DOSCALLS.299)
 0000:00000000  Imp  DosClose             (DOSCALLS.257)
 0000:00000000  Imp  DosCloseEventSem     (DOSCALLS.326)
 0000:00000000  Imp  DosCloseMutexSem     (DOSCALLS.333)
 0000:00000000  Imp  DosCreateEventSem    (DOSCALLS.324)
 0000:00000000  Imp  DosCreateMutexSem    (DOSCALLS.331)
 0000:00000000  Imp  DosCreateThread      (DOSCALLS.311)
 0000:00000000  Imp  DosExit              (DOSCALLS.234)
 0000:00000000  Imp  DosForceDelete       (DOSCALLS.110)
 0000:00000000  Imp  DosFreeMem           (DOSCALLS.304)
 0000:00000000  Imp  DosGetInfoBlocks     (DOSCALLS.312)
 0001:0000888E       DOSGETMESSAGE
 0001:0000888E       DosGetMessage
 0000:00000000  Imp  DosOpen              (DOSCALLS.273)
 0000:00000000  Imp  DOSPOSTEVENTSEM      (DOSCALLS.328)
 0000:00000000  Imp  DosQueryDBCSEnv      (NLS.6)
 0000:00000000  Imp  DosQueryHType        (DOSCALLS.224)
 0000:00000000  Imp  DosQueryModuleHandle (DOSCALLS.319)
 0000:00000000  Imp  DosQueryPathInfo     (DOSCALLS.223)
 0000:00000000  Imp  DosQuerySysInfo      (DOSCALLS.348)
 0000:00000000  Imp  DosRaiseException    (DOSCALLS.356)
 0000:00000000  Imp  DosRead              (DOSCALLS.281)
 0000:00000000  Imp  DOSRELEASEMUTEXSEM   (DOSCALLS.335)
 0000:00000000  Imp  DOSREQUESTMUTEXSEM   (DOSCALLS.334)
 0000:00000000  Imp  DOSRESETEVENTSEM     (DOSCALLS.327)
 0000:00000000  Imp  DosSetExceptionHandler (DOSCALLS.354)
 0000:00000000  Imp  DosSetFilePtr        (DOSCALLS.256)
 0000:00000000  Imp  DosSetFileSize       (DOSCALLS.272)
 0000:00000000  Imp  DosSetRelMaxFH       (DOSCALLS.382)
 0000:00000000  Imp  DosSetSignalExceptionFocus (DOSCALLS.378)
 0000:00000000  Imp  DOSWAITEVENTSEM      (DOSCALLS.329)
 0000:00000000  Imp  DosWrite             (DOSCALLS.282)
 0000:00000000  Imp  DrgAddStrHandle      (PMDRAG.33)
 0000:00000000  Imp  DrgAllocDragtransfer (PMDRAG.35)
 0000:00000000  Imp  DrgDeleteStrHandle   (PMDRAG.37)
 0000:00000000  Imp  DrgFreeDragtransfer  (PMDRAG.40)
 0000:00000000  Imp  DrgQueryDragitemCount (PMDRAG.45)
 0000:00000000  Imp  DrgQueryDragitemPtr  (PMDRAG.46)
 0000:00000000  Imp  DrgQueryStrName      (PMDRAG.49)
 0000:00000000  Imp  DrgQueryStrNameLen   (PMDRAG.50)
 0000:00000000  Imp  DrgSendTransferMsg   (PMDRAG.54)
 0000:00000000  Imp  DrgVerifyRMF         (PMDRAG.59)
 0001:00003050       fflush
 0001:00002C1C       FinanceFileWndProc
 0001:00003194       fopen
 0001:00003290       fputc
 0001:00003538       free
 0001:00007140       getenv
 0002:00002A2C       hLockedIcon
 0002:00002A90       hmodThisClass
 0002:00002A8C       hUnlockedIcon
 0001:00003620       malloc
 0001:00003964       memcpy
 0001:00003994       memset
 0001:00000000       myReplacementForSOMOutChar
 0002:00000138       M_PWFinanceFileCClassData
 0002:00000134       M_PWFinanceFileClassData
 0001:00000978       M_PWFinanceFileNewClass
 0000:00000000  Imp  M_WPDataFileNewClass (PMWP.318)
 0000:00000000  Imp  M_WPObjectClassData  (PMWP.323)
 0001:000019F0       PasswordDlgProc
 0002:0000012C       PWFinanceFileCClassData
 0002:0000011C       PWFinanceFileClassData
 0001:000018B4       pwFinanceFilecls_wpclsInitData
 0001:0000185C       pwFinanceFilecls_wpclsQueryIcon
 0001:00001818       pwFinanceFilecls_wpclsQueryTitle
 0001:0000197C       pwFinanceFilecls_wpclsUnInitData
 0001:0000289C       PWFinanceFileInit
 0001:0000057C       PWFinanceFileNewClass
 0001:00000BE4       pwFinanceFile_LockFinanceFile
 0001:00000AD4       pwFinanceFile_QueryInfo
 0001:00000B5C       pwFinanceFile_SetInfo
 0001:00001D40       pwFinanceFile_wpAddFileTypePage
 0001:00001B70       pwFinanceFile_wpDraggedOverObject
 0001:00001E28       pwFinanceFile_wpDragOver
 0001:000020CC       pwFinanceFile_wpDrop
 0001:000027DC       pwFinanceFile_wpFilterPopupMenu
 0001:00000D3C       pwFinanceFile_wpInitData
 0001:00000EFC       pwFinanceFile_wpMenuItemSelected
 0001:00000DEC       pwFinanceFile_wpModifyPopupMenu
 0001:00001040       pwFinanceFile_wpOpen
 0001:00002064       pwFinanceFile_wpPrintObject
 0001:000015F4       pwFinanceFile_wpRestoreState
 0001:000014FC       pwFinanceFile_wpSaveState
 0001:00001750       pwFinanceFile_wpSetIcon
 0001:00001324       pwFinanceFile_wpSetTitle
 0001:00001404       pwFinanceFile_wpSetup
 0001:00001D98       queryObjectFromDragItem
 0001:0000887C       sig32
 0000:00000000  Imp  SOMClassClassData    (som.3)
 0000:00000000  Imp  SOMClassMgrClassData (som.6)
 0000:00000000  Imp  SOMClassMgrObject    (som.7)
 0000:00000000  Imp  somConstructClass    (som.28)
 0000:00000000  Imp  somDataResolve       (som.47)
 0000:00000000  Imp  somEnvironmentNew    (som.30)
 0000:00000000  Imp  SOMError             (som.9)
 0000:00000000  Imp  somIdFromString      (som.31)
 0000:00000000  Imp  SOMObjectCClassData  (som.13)
 0000:00000000  Imp  SOMObjectClassData   (som.14)
 0000:00000000  Imp  SOMOutCharRoutine    (som.15)
 0000:00000000  Imp  somParentResolve     (som.33)
 0000:00000000  Imp  somPrintf            (som.35)
 0000:00000000  Imp  somResolve           (som.37)
 0000:00000000  Imp  somTestCls           (som.42)
 0000:00000000  Imp  SOM_TraceLevel       (som.18)
 0002:00001B94       stderr
 0002:00001B8C       stdin
 0002:00001B90       stdout
 0001:000039DC       strcmp
 0001:00003A10       strcpy
 0001:000085F0       strdup
 0001:00003A4C       strlen
 0001:00007CC4       strnicmp
 0001:00007D74       strspn
 0001:00003A70       strstr
 0001:00007DB0       strtoul
 0001:00007EA8       strupr
 0002:00000018       szFinanceFileClassTitle
 0002:00000004       szFinanceFileWindowClass
 0000:00000000  Imp  WinBeginPaint        (PMWIN.703)
 0000:00000000  Imp  WinCreateWindow      (PMWIN.909)
 0000:00000000  Imp  WinDefDlgProc        (PMWIN.910)
 0000:00000000  Imp  WinDefWindowProc     (PMWIN.911)
 0000:00000000  Imp  WinDestroyPointer    (PMWIN.727)
 0000:00000000  Imp  WinDestroyWindow     (PMWIN.728)
 0000:00000000  Imp  WinDismissDlg        (PMWIN.729)
 0000:00000000  Imp  WinDlgBox            (PMWIN.923)
 0000:00000000  Imp  WinEndPaint          (PMWIN.738)
 0000:00000000  Imp  WinFillRect          (PMWIN.743)
 0000:00000000  Imp  WinLoadPointer       (PMWIN.780)
 0000:00000000  Imp  WinMessageBox        (PMWIN.789)
 0000:00000000  Imp  WinQueryAnchorBlock  (PMWIN.800)
 0000:00000000  Imp  WinQueryDlgItemText  (PMWIN.815)
 0000:00000000  Imp  WinQueryTaskSizePos  (PMSHAPI.127)
 0000:00000000  Imp  WinQueryWindow       (PMWIN.834)
 0000:00000000  Imp  WinQueryWindowPtr    (PMWIN.839)
 0000:00000000  Imp  WinQueryWindowULong  (PMWIN.843)
 0000:00000000  Imp  WinRegisterClass     (PMWIN.926)
 0000:00000000  Imp  WinRestoreWindowPos  (PMWP.208)
 0000:00000000  Imp  WinSendMsg           (PMWIN.920)
 0000:00000000  Imp  WinSetFocus          (PMWIN.860)
 0000:00000000  Imp  WinSetWindowPos      (PMWIN.875)
 0000:00000000  Imp  WinSetWindowPtr      (PMWIN.876)
 0000:00000000  Imp  WinSetWindowText     (PMWIN.877)
 0000:00000000  Imp  WinSetWindowULong    (PMWIN.878)
 0000:00000000  Imp  WinShowWindow        (PMWIN.883)
 0000:00000000  Imp  WinStoreWindowPos    (PMWP.207)
 0000:00000000  Imp  WinWindowFromID      (PMWIN.899)
 0000:00000000  Imp  WPDataFileClassData  (PMWP.17)
 0000:00000000  Imp  WPDataFileNewClass   (PMWP.18)
 0000:00000000  Imp  WPFileSystemClassData (PMWP.11)
 0000:00000000  Imp  WPObjectClassData    (PMWP.23)
 0000:00000000  Imp  WPProgramClassData   (PMWP.47)
 0000:00000000  Imp  WPProgramFileClassData (PMWP.50)
 0001:000066B8       _AllocSpace
 0001:0000674C       _beginthread
 0001:000069A8       _bit_test_set
 0001:000075EC       _callback_opt_sys
 0001:000069BC       _CheckIfMem
 0001:00006E84       _CloseSem
 0001:00006A1C       _CloseStream
 0001:00006ECC       _CreateSem
 0001:00005A94       _critlib_except
 0001:000067F8       _CrtGetLocalData
 0001:000067B4       _CrtInitThread
 0001:00003B30       _CRT_init
 0001:00006CBC       _CRT_term
 0002:00001B9C       _ctable
 0002:00002A18       _ctype
 0002:00001CA0       _daylight
 0002:00001B48       _dllentry
 0001:00006420       _DLL_InitTerm
 0001:000039D4       _DosFlatToSel
 0001:000039CC       _DosSelToFlat
 0002:000029F8       _edata
 0001:00007FE0       _edcGetMessage
 0002:00002AAC       _end
 0001:00008004       _endthread
 0002:000029F8       _environ
 0001:00006458       _errno
 0001:000075C8       _Exception
 0001:00005010       _exception_dllinit
 0001:00004FDC       _exception_procinit
 0001:00005CB8       _EXE_Exception
 0001:000040E8       _fcloseall
 0001:00008128       _fcloseall_weak
 0002:00002730       _firsteib
 0001:000041D4       _Flush
 0001:00004394       _flushb
 0001:000047A8       _Fmprs
 0002:000021D0       _fopenused
 0001:0000813C       _fpreset
 0001:00006F44       _FreeFCB
 0001:0000814C       _freeThreadStorage
 0001:00007024       _fullpath
 0001:00007604       _get_seglim
 0001:000082D4       _heapmin
 0001:00004EF4       _ilog2
 0001:000072B8       _InitBuf
 0001:0000733C       _InitFCB
 0001:00004EFC       _internal_err
 0002:000029F4       _lasteib
 0001:0000592C       _Lib_excpt
 0001:0000751C       _ltoa
 0001:000075B4       _matherr
 0002:000021E8       _matherr_ptr
 0001:00006CA8       _Math_Exception_Def
 0002:00002A1C       _memory_sem
 0001:000079B0       _MesgServ
 0001:00004F70       _mig_eib_store
 0001:00007640       _noddprs
 0001:0000772C       _OpenMemory
 0001:00005DA4       _OpenStream
 0002:00002A14       _osmajor
 0002:00002A28       _osminor
 0002:00001CA8       _osmode
 0002:00002A4C       _pBucketArr
 0002:00001B98       _PGLOBAL_PTR
 0001:00007B80       _PrintErrMsg
 0001:00005BB0       _recreate_exception
 0001:000075F8       _Regen_exception
 0001:000040D0       _ReleaseSem
 0001:00008568       _RemoveMem
 0001:00004050       _RequestSem
 0001:00007BE0       _setupenv
 0001:000036AC       _split_chunk
 0001:00007EF8       _terminate
 0001:000075E0       _Test_and_reset
 0001:00003FF4       _test_handle
 0002:00001CA4       _timezone
 0002:00002A94       _tmemory_sem
 0001:00008688       _toint
 0002:00002AA0       _tzname
 0001:00006540       _uwrite
 0001:00007BD8       _w_raise
 0001:00004F50       __Async_exception_flag
 0001:000064A8       __broken_time_ptr
 0001:000064B8       __cvt_buf_ptr
 0001:00006468       __doserrno
 0001:00006478       __dttm_ptr
 0001:00005040       __Exception
 0001:00006498       __flags
 0001:000035A8       __free
 0001:000064D8       __internal_buf_ptr
 0001:000064C8       __lcvt_buf_ptr
 0001:0000379C       __malloc
 0001:000064E8       __perror_msg_ptr
 0001:00006524       __random_seed
 0001:00004F60       __Saved_return_address
 0001:00006488       __strerror_msg_ptr
 0001:00006508       __strtok_pos
 0001:000064F8       __tempname_ptr
 0001:0000865C       __threadid
 0001:00006518       __version

  Address         Publics by Value

 0000:00000000  Imp  DOS32SELTOFLAT       (DOSCALLS.426)
 0000:00000000  Imp  DosOpen              (DOSCALLS.273)
 0000:00000000  Imp  WinCreateWindow      (PMWIN.909)
 0000:00000000  Imp  M_WPDataFileNewClass (PMWP.318)
 0000:00000000  Imp  DosRead              (DOSCALLS.281)
 0000:00000000  Imp  WinQueryWindowPtr    (PMWIN.839)
 0000:00000000  Imp  WinDismissDlg        (PMWIN.729)
 0000:00000000  Imp  WinQueryAnchorBlock  (PMWIN.800)
 0000:00000000  Imp  WinSetFocus          (PMWIN.860)
 0000:00000000  Imp  SOMClassMgrClassData (som.6)
 0000:00000000  Imp  WinSetWindowULong    (PMWIN.878)
 0000:00000000  Imp  WinEndPaint          (PMWIN.738)
 0000:00000000  Imp  WPProgramClassData   (PMWP.47)
 0000:00000000  Imp  DrgQueryDragitemCount (PMDRAG.45)
 0000:00000000  Imp  SOMError             (som.9)
 0000:00000000  Imp  WPDataFileNewClass   (PMWP.18)
 0000:00000000  Imp  DrgAllocDragtransfer (PMDRAG.35)
 0000:00000000  Imp  WinQueryWindowULong  (PMWIN.843)
 0000:00000000  Imp  WinSendMsg           (PMWIN.920)
 0000:00000000  Imp  WinBeginPaint        (PMWIN.703)
 0000:00000000  Imp  DrgQueryStrNameLen   (PMDRAG.50)
 0000:00000000  Imp  DrgVerifyRMF         (PMDRAG.59)
 0000:00000000  Imp  DosSetFilePtr        (DOSCALLS.256)
 0000:00000000  Imp  WinStoreWindowPos    (PMWP.207)
 0000:00000000  Imp  DosFreeMem           (DOSCALLS.304)
 0000:00000000  Imp  DosClose             (DOSCALLS.257)
 0000:00000000  Imp  WinMessageBox        (PMWIN.789)
 0000:00000000  Imp  SOMOutCharRoutine    (som.15)
 0000:00000000  Imp  DosCreateEventSem    (DOSCALLS.324)
 0000:00000000  Imp  WinLoadPointer       (PMWIN.780)
 0000:00000000  Imp  WinSetWindowPtr      (PMWIN.876)
 0000:00000000  Imp  WPProgramFileClassData (PMWP.50)
 0000:00000000  Imp  DosGetInfoBlocks     (DOSCALLS.312)
 0000:00000000  Imp  DosQuerySysInfo      (DOSCALLS.348)
 0000:00000000  Imp  WinDefWindowProc     (PMWIN.911)
 0000:00000000  Imp  DOSPOSTEVENTSEM      (DOSCALLS.328)
 0000:00000000  Imp  DrgSendTransferMsg   (PMDRAG.54)
 0000:00000000  Imp  DosSetSignalExceptionFocus (DOSCALLS.378)
 0000:00000000  Imp  WinRegisterClass     (PMWIN.926)
 0000:00000000  Imp  DrgQueryStrName      (PMDRAG.49)
 0000:00000000  Imp  DosCloseMutexSem     (DOSCALLS.333)
 0000:00000000  Imp  WinSetWindowPos      (PMWIN.875)
 0000:00000000  Imp  WPFileSystemClassData (PMWP.11)
 0000:00000000  Imp  WinQueryTaskSizePos  (PMSHAPI.127)
 0000:00000000  Imp  DOSRELEASEMUTEXSEM   (DOSCALLS.335)
 0000:00000000  Imp  DrgFreeDragtransfer  (PMDRAG.40)
 0000:00000000  Imp  DosWrite             (DOSCALLS.282)
 0000:00000000  Imp  WinQueryWindow       (PMWIN.834)
 0000:00000000  Imp  WinQueryDlgItemText  (PMWIN.815)
 0000:00000000  Imp  DosSetExceptionHandler (DOSCALLS.354)
 0000:00000000  Imp  somResolve           (som.37)
 0000:00000000  Imp  somTestCls           (som.42)
 0000:00000000  Imp  DosSetFileSize       (DOSCALLS.272)
 0000:00000000  Imp  WinWindowFromID      (PMWIN.899)
 0000:00000000  Imp  DosQueryHType        (DOSCALLS.224)
 0000:00000000  Imp  DosAllocMem          (DOSCALLS.299)
 0000:00000000  Imp  somEnvironmentNew    (som.30)
 0000:00000000  Imp  DosQueryDBCSEnv      (NLS.6)
 0000:00000000  Imp  WinFillRect          (PMWIN.743)
 0000:00000000  Imp  WPObjectClassData    (PMWP.23)
 0000:00000000  Imp  somDataResolve       (som.47)
 0000:00000000  Imp  DosExit              (DOSCALLS.234)
 0000:00000000  Imp  WPDataFileClassData  (PMWP.17)
 0000:00000000  Imp  DrgAddStrHandle      (PMDRAG.33)
 0000:00000000  Imp  somPrintf            (som.35)
 0000:00000000  Imp  DosQueryPathInfo     (DOSCALLS.223)
 0000:00000000  Imp  DOS32FLATTOSEL       (DOSCALLS.425)
 0000:00000000  Imp  somIdFromString      (som.31)
 0000:00000000  Imp  SOMClassMgrObject    (som.7)
 0000:00000000  Imp  DrgDeleteStrHandle   (PMDRAG.37)
 0000:00000000  Imp  DOSREQUESTMUTEXSEM   (DOSCALLS.334)
 0000:00000000  Imp  somConstructClass    (som.28)
 0000:00000000  Imp  DosQueryModuleHandle (DOSCALLS.319)
 0000:00000000  Imp  DosCreateThread      (DOSCALLS.311)
 0000:00000000  Imp  WinDefDlgProc        (PMWIN.910)
 0000:00000000  Imp  DosRaiseException    (DOSCALLS.356)
 0000:00000000  Imp  SOMObjectClassData   (som.14)
 0000:00000000  Imp  DOS32IQUERYMESSAGECP (MSG.8)
 0000:00000000  Imp  WinRestoreWindowPos  (PMWP.208)
 0000:00000000  Imp  WinDestroyPointer    (PMWIN.727)
 0000:00000000  Imp  WinShowWindow        (PMWIN.883)
 0000:00000000  Imp  SOM_TraceLevel       (som.18)
 0000:00000000  Imp  M_WPObjectClassData  (PMWP.323)
 0000:00000000  Imp  DosSetRelMaxFH       (DOSCALLS.382)
 0000:00000000  Imp  DrgQueryDragitemPtr  (PMDRAG.46)
 0000:00000000  Imp  DosCloseEventSem     (DOSCALLS.326)
 0000:00000000  Imp  SOMObjectCClassData  (som.13)
 0000:00000000  Imp  WinSetWindowText     (PMWIN.877)
 0000:00000000  Imp  DosCreateMutexSem    (DOSCALLS.331)
 0000:00000000  Imp  somParentResolve     (som.33)
 0000:00000000  Imp  SOMClassClassData    (som.3)
 0000:00000000  Imp  DosForceDelete       (DOSCALLS.110)
 0000:00000000  Imp  DOSRESETEVENTSEM     (DOSCALLS.327)
 0000:00000000  Imp  DOS32TRUEGETMESSAGE  (MSG.6)
 0000:00000000  Imp  WinDestroyWindow     (PMWIN.728)
 0000:00000000  Imp  WinDlgBox            (PMWIN.923)
 0000:00000000  Imp  DOSWAITEVENTSEM      (DOSCALLS.329)
 0001:00000000       myReplacementForSOMOutChar
 0001:0000057C       PWFinanceFileNewClass
 0001:00000978       M_PWFinanceFileNewClass
 0001:00000AD4       pwFinanceFile_QueryInfo
 0001:00000B5C       pwFinanceFile_SetInfo
 0001:00000BE4       pwFinanceFile_LockFinanceFile
 0001:00000D3C       pwFinanceFile_wpInitData
 0001:00000DEC       pwFinanceFile_wpModifyPopupMenu
 0001:00000EFC       pwFinanceFile_wpMenuItemSelected
 0001:00001040       pwFinanceFile_wpOpen
 0001:00001324       pwFinanceFile_wpSetTitle
 0001:00001404       pwFinanceFile_wpSetup
 0001:000014FC       pwFinanceFile_wpSaveState
 0001:000015F4       pwFinanceFile_wpRestoreState
 0001:00001750       pwFinanceFile_wpSetIcon
 0001:00001818       pwFinanceFilecls_wpclsQueryTitle
 0001:0000185C       pwFinanceFilecls_wpclsQueryIcon
 0001:000018B4       pwFinanceFilecls_wpclsInitData
 0001:0000197C       pwFinanceFilecls_wpclsUnInitData
 0001:000019F0       PasswordDlgProc
 0001:00001B70       pwFinanceFile_wpDraggedOverObject
 0001:00001D40       pwFinanceFile_wpAddFileTypePage
 0001:00001D98       queryObjectFromDragItem
 0001:00001E28       pwFinanceFile_wpDragOver
 0001:00002064       pwFinanceFile_wpPrintObject
 0001:000020CC       pwFinanceFile_wpDrop
 0001:000027DC       pwFinanceFile_wpFilterPopupMenu
 0001:0000289C       PWFinanceFileInit
 0001:00002C1C       FinanceFileWndProc
 0001:00003050       fflush
 0001:00003194       fopen
 0001:00003290       fputc
 0001:00003538       free
 0001:000035A8       __free
 0001:00003620       malloc
 0001:000036AC       _split_chunk
 0001:0000379C       __malloc
 0001:00003964       memcpy
 0001:00003994       memset
 0001:000039CC       _DosSelToFlat
 0001:000039D4       _DosFlatToSel
 0001:000039DC       strcmp
 0001:00003A10       strcpy
 0001:00003A4C       strlen
 0001:00003A70       strstr
 0001:00003B30       _CRT_init
 0001:00003FF4       _test_handle
 0001:00004050       _RequestSem
 0001:000040D0       _ReleaseSem
 0001:000040E8       _fcloseall
 0001:000041D4       _Flush
 0001:00004394       _flushb
 0001:000047A8       _Fmprs
 0001:00004EF4       _ilog2
 0001:00004EFC       _internal_err
 0001:00004F50       __Async_exception_flag
 0001:00004F60       __Saved_return_address
 0001:00004F70       _mig_eib_store
 0001:00004FDC       _exception_procinit
 0001:00005010       _exception_dllinit
 0001:00005040       __Exception
 0001:0000592C       _Lib_excpt
 0001:00005A94       _critlib_except
 0001:00005BB0       _recreate_exception
 0001:00005CB8       _EXE_Exception
 0001:00005DA4       _OpenStream
 0001:00006420       _DLL_InitTerm
 0001:00006458       _errno
 0001:00006468       __doserrno
 0001:00006478       __dttm_ptr
 0001:00006488       __strerror_msg_ptr
 0001:00006498       __flags
 0001:000064A8       __broken_time_ptr
 0001:000064B8       __cvt_buf_ptr
 0001:000064C8       __lcvt_buf_ptr
 0001:000064D8       __internal_buf_ptr
 0001:000064E8       __perror_msg_ptr
 0001:000064F8       __tempname_ptr
 0001:00006508       __strtok_pos
 0001:00006518       __version
 0001:00006524       __random_seed
 0001:00006540       _uwrite
 0001:000066B8       _AllocSpace
 0001:0000674C       _beginthread
 0001:000067B4       _CrtInitThread
 0001:000067F8       _CrtGetLocalData
 0001:000069A8       _bit_test_set
 0001:000069BC       _CheckIfMem
 0001:00006A1C       _CloseStream
 0001:00006CA8       _Math_Exception_Def
 0001:00006CBC       _CRT_term
 0001:00006E84       _CloseSem
 0001:00006ECC       _CreateSem
 0001:00006F44       _FreeFCB
 0001:00007024       _fullpath
 0001:00007140       getenv
 0001:000072B8       _InitBuf
 0001:0000733C       _InitFCB
 0001:0000751C       _ltoa
 0001:000075B4       _matherr
 0001:000075C8       _Exception
 0001:000075E0       _Test_and_reset
 0001:000075EC       _callback_opt_sys
 0001:000075F8       _Regen_exception
 0001:00007604       _get_seglim
 0001:00007640       _noddprs
 0001:0000772C       _OpenMemory
 0001:000079B0       _MesgServ
 0001:00007B80       _PrintErrMsg
 0001:00007BD8       _w_raise
 0001:00007BE0       _setupenv
 0001:00007CC4       strnicmp
 0001:00007D74       strspn
 0001:00007DB0       strtoul
 0001:00007EA8       strupr
 0001:00007EF8       _terminate
 0001:00007F18       calloc
 0001:00007FE0       _edcGetMessage
 0001:00008004       _endthread
 0001:00008128       _fcloseall_weak
 0001:0000813C       _fpreset
 0001:0000814C       _freeThreadStorage
 0001:000082D4       _heapmin
 0001:00008568       _RemoveMem
 0001:000085F0       strdup
 0001:0000865C       __threadid
 0001:00008688       _toint
 0001:0000887C       sig32
 0001:0000888E       DOS32GETMESSAGE
 0001:0000888E       Dos32GetMessage
 0001:0000888E       DosGetMessage
 0001:0000888E       DOSGETMESSAGE
 0002:00000000       DefaultClassTitle
 0002:00000004       szFinanceFileWindowClass
 0002:00000018       szFinanceFileClassTitle
 0002:0000011C       PWFinanceFileClassData
 0002:0000012C       PWFinanceFileCClassData
 0002:00000134       M_PWFinanceFileClassData
 0002:00000138       M_PWFinanceFileCClassData
 0002:00001B48       _dllentry
 0002:00001B8C       stdin
 0002:00001B90       stdout
 0002:00001B94       stderr
 0002:00001B98       _PGLOBAL_PTR
 0002:00001B9C       _ctable
 0002:00001CA0       _daylight
 0002:00001CA4       _timezone
 0002:00001CA8       _osmode
 0002:000021D0       _fopenused
 0002:000021E8       _matherr_ptr
 0002:00002730       _firsteib
 0002:000029F4       _lasteib
 0002:000029F8       _edata
 0002:000029F8       _environ
 0002:000029FC       @BSSN_EXCEPT.C
 0002:00002A14       _osmajor
 0002:00002A18       _ctype
 0002:00002A1C       _memory_sem
 0002:00002A28       _osminor
 0002:00002A2C       hLockedIcon
 0002:00002A30       @BSSEDCINIT.C
 0002:00002A40       @BSSPWFIN.C
 0002:00002A4C       _pBucketArr
 0002:00002A8C       hUnlockedIcon
 0002:00002A90       hmodThisClass
 0002:00002A94       _tmemory_sem
 0002:00002AA0       _tzname
 0002:00002AA8       @BSSPRTEMSG.C
 0002:00002AAC       _end

Program entry point at 0001:6420

Segments              9
Groups                2
Bytes in symbol table  28795
